target datalayout = "e-m:e-p270:32:32-p271:32:32-p272:64:64-i64:64-i128:128-f80:128-n8:16:32:64-S128"
target triple = "x86_64-pc-linux-gnu"

%union.stbcc__global_clumpid = type { %struct.anon }
%struct.anon = type { i32 }
%struct.st_stbcc_grid = type { i32, i32, i32, i32, i32, [1024 x [128 x i8]], [1024 x [1024 x i16]], [32 x [32 x %struct.stbcc__cluster]] }
%struct.stbcc__cluster = type { i16, i8, i8, [512 x %struct.stbcc__clump], [128 x %struct.stbcc__relative_clumpid] }
%struct.stbcc__clump = type { %union.stbcc__global_clumpid, i8, i8, i8, i8 }
%struct.stbcc__relative_clumpid = type { i16 }

; Function Attrs: nounwind uwtable
define void @stbcc__add_clump_connection(ptr noundef %0, i32 noundef %1, i32 noundef %2, i32 noundef %3, i32 noundef %4) #0 {
  %6 = alloca ptr, align 8
  %7 = alloca i32, align 4
  %8 = alloca i32, align 4
  %9 = alloca i32, align 4
  %10 = alloca i32, align 4
  %11 = alloca ptr, align 8
  %12 = alloca ptr, align 8
  %13 = alloca i32, align 4
  %14 = alloca i32, align 4
  %15 = alloca i32, align 4
  %16 = alloca i32, align 4
  %17 = alloca i16, align 2
  %18 = alloca i16, align 2
  %19 = alloca %struct.stbcc__relative_clumpid, align 2
  %20 = alloca ptr, align 8
  store ptr %0, ptr %6, align 8, !tbaa !3
  store i32 %1, ptr %7, align 4, !tbaa !8
  store i32 %2, ptr %8, align 4, !tbaa !8
  store i32 %3, ptr %9, align 4, !tbaa !8
  store i32 %4, ptr %10, align 4, !tbaa !8
  call void @llvm.lifetime.start.p0(i64 8, ptr %11) #4
  call void @llvm.lifetime.start.p0(i64 8, ptr %12) #4
  call void @llvm.lifetime.start.p0(i64 4, ptr %13) #4
  %21 = load i32, ptr %7, align 4, !tbaa !8
  %22 = ashr i32 %21, 5
  store i32 %22, ptr %13, align 4, !tbaa !8
  call void @llvm.lifetime.start.p0(i64 4, ptr %14) #4
  %23 = load i32, ptr %8, align 4, !tbaa !8
  %24 = ashr i32 %23, 5
  store i32 %24, ptr %14, align 4, !tbaa !8
  call void @llvm.lifetime.start.p0(i64 4, ptr %15) #4
  %25 = load i32, ptr %9, align 4, !tbaa !8
  %26 = ashr i32 %25, 5
  store i32 %26, ptr %15, align 4, !tbaa !8
  call void @llvm.lifetime.start.p0(i64 4, ptr %16) #4
  %27 = load i32, ptr %10, align 4, !tbaa !8
  %28 = ashr i32 %27, 5
  store i32 %28, ptr %16, align 4, !tbaa !8
  call void @llvm.lifetime.start.p0(i64 2, ptr %17) #4
  %29 = load ptr, ptr %6, align 8, !tbaa !3
  %30 = getelementptr inbounds nuw %struct.st_stbcc_grid, ptr %29, i32 0, i32 6
  %31 = load i32, ptr %8, align 4, !tbaa !8
  %32 = sext i32 %31 to i64
  %33 = getelementptr inbounds [1024 x [1024 x i16]], ptr %30, i64 0, i64 %32
  %34 = load i32, ptr %7, align 4, !tbaa !8
  %35 = sext i32 %34 to i64
  %36 = getelementptr inbounds [1024 x i16], ptr %33, i64 0, i64 %35
  %37 = load i16, ptr %36, align 2, !tbaa !10
  store i16 %37, ptr %17, align 2, !tbaa !10
  call void @llvm.lifetime.start.p0(i64 2, ptr %18) #4
  %38 = load ptr, ptr %6, align 8, !tbaa !3
  %39 = getelementptr inbounds nuw %struct.st_stbcc_grid, ptr %38, i32 0, i32 6
  %40 = load i32, ptr %10, align 4, !tbaa !8
  %41 = sext i32 %40 to i64
  %42 = getelementptr inbounds [1024 x [1024 x i16]], ptr %39, i64 0, i64 %41
  %43 = load i32, ptr %9, align 4, !tbaa !8
  %44 = sext i32 %43 to i64
  %45 = getelementptr inbounds [1024 x i16], ptr %42, i64 0, i64 %44
  %46 = load i16, ptr %45, align 2, !tbaa !10
  store i16 %46, ptr %18, align 2, !tbaa !10
  call void @llvm.lifetime.start.p0(i64 2, ptr %19) #4
  %47 = load i16, ptr %18, align 2, !tbaa !10
  %48 = load i16, ptr %19, align 2
  %49 = and i16 %47, 4095
  %50 = and i16 %48, -4096
  %51 = or i16 %50, %49
  store i16 %51, ptr %19, align 2
  %52 = load i32, ptr %9, align 4, !tbaa !8
  %53 = load i32, ptr %7, align 4, !tbaa !8
  %54 = sub nsw i32 %52, %53
  %55 = trunc i32 %54 to i16
  %56 = load i16, ptr %19, align 2
  %57 = and i16 %55, 3
  %58 = shl i16 %57, 12
  %59 = and i16 %56, -12289
  %60 = or i16 %59, %58
  store i16 %60, ptr %19, align 2
  %61 = load i32, ptr %10, align 4, !tbaa !8
  %62 = load i32, ptr %8, align 4, !tbaa !8
  %63 = sub nsw i32 %61, %62
  %64 = trunc i32 %63 to i16
  %65 = load i16, ptr %19, align 2
  %66 = and i16 %64, 3
  %67 = shl i16 %66, 14
  %68 = and i16 %65, 16383
  %69 = or i16 %68, %67
  store i16 %69, ptr %19, align 2
  %70 = load ptr, ptr %6, align 8, !tbaa !3
  %71 = getelementptr inbounds nuw %struct.st_stbcc_grid, ptr %70, i32 0, i32 7
  %72 = load i32, ptr %14, align 4, !tbaa !8
  %73 = sext i32 %72 to i64
  %74 = getelementptr inbounds [32 x [32 x %struct.stbcc__cluster]], ptr %71, i64 0, i64 %73
  %75 = load i32, ptr %13, align 4, !tbaa !8
  %76 = sext i32 %75 to i64
  %77 = getelementptr inbounds [32 x %struct.stbcc__cluster], ptr %74, i64 0, i64 %76
  store ptr %77, ptr %11, align 8, !tbaa !14
  %78 = load ptr, ptr %11, align 8, !tbaa !14
  %79 = getelementptr inbounds nuw %struct.stbcc__cluster, ptr %78, i32 0, i32 3
  %80 = load i16, ptr %17, align 2, !tbaa !10
  %81 = zext i16 %80 to i64
  %82 = getelementptr inbounds nuw [512 x %struct.stbcc__clump], ptr %79, i64 0, i64 %81
  store ptr %82, ptr %12, align 8, !tbaa !14
  %83 = load ptr, ptr %12, align 8, !tbaa !14
  %84 = getelementptr inbounds nuw %struct.stbcc__clump, ptr %83, i32 0, i32 1
  %85 = load i8, ptr %84, align 4, !tbaa !27
  %86 = zext i8 %85 to i32
  %87 = load ptr, ptr %12, align 8, !tbaa !14
  %88 = getelementptr inbounds nuw %struct.stbcc__clump, ptr %87, i32 0, i32 2
  %89 = load i8, ptr %88, align 1, !tbaa !41
  %90 = zext i8 %89 to i32
  %91 = icmp eq i32 %86, %90
  br i1 %91, label %92, label %102

92:                                               ; preds = %5
  %93 = load ptr, ptr %6, align 8, !tbaa !3
  %94 = getelementptr inbounds nuw %struct.st_stbcc_grid, ptr %93, i32 0, i32 7
  %95 = load i32, ptr %14, align 4, !tbaa !8
  %96 = sext i32 %95 to i64
  %97 = getelementptr inbounds [32 x [32 x %struct.stbcc__cluster]], ptr %94, i64 0, i64 %96
  %98 = load i32, ptr %13, align 4, !tbaa !8
  %99 = sext i32 %98 to i64
  %100 = getelementptr inbounds [32 x %struct.stbcc__cluster], ptr %97, i64 0, i64 %99
  %101 = getelementptr inbounds nuw %struct.stbcc__cluster, ptr %100, i32 0, i32 2
  store i8 1, ptr %101, align 1, !tbaa !35
  br label %117

102:                                              ; preds = %5
  call void @llvm.lifetime.start.p0(i64 8, ptr %20) #4
  %103 = load ptr, ptr %11, align 8, !tbaa !14
  %104 = getelementptr inbounds nuw %struct.stbcc__cluster, ptr %103, i32 0, i32 4
  %105 = load ptr, ptr %12, align 8, !tbaa !14
  %106 = getelementptr inbounds nuw %struct.stbcc__clump, ptr %105, i32 0, i32 3
  %107 = load i8, ptr %106, align 2, !tbaa !25
  %108 = zext i8 %107 to i64
  %109 = getelementptr inbounds nuw [128 x %struct.stbcc__relative_clumpid], ptr %104, i64 0, i64 %108
  store ptr %109, ptr %20, align 8, !tbaa !14
  %110 = load ptr, ptr %20, align 8, !tbaa !14
  %111 = load ptr, ptr %12, align 8, !tbaa !14
  %112 = getelementptr inbounds nuw %struct.stbcc__clump, ptr %111, i32 0, i32 1
  %113 = load i8, ptr %112, align 4, !tbaa !27
  %114 = add i8 %113, 1
  store i8 %114, ptr %112, align 4, !tbaa !27
  %115 = zext i8 %113 to i64
  %116 = getelementptr inbounds nuw %struct.stbcc__relative_clumpid, ptr %110, i64 %115
  call void @llvm.memcpy.p0.p0.i64(ptr align 2 %116, ptr align 2 %19, i64 2, i1 false), !tbaa.struct !81
  call void @llvm.lifetime.end.p0(i64 8, ptr %20) #4
  br label %117

117:                                              ; preds = %102, %92
  call void @llvm.lifetime.end.p0(i64 2, ptr %19) #4
  call void @llvm.lifetime.end.p0(i64 2, ptr %18) #4
  call void @llvm.lifetime.end.p0(i64 2, ptr %17) #4
  call void @llvm.lifetime.end.p0(i64 4, ptr %16) #4
  call void @llvm.lifetime.end.p0(i64 4, ptr %15) #4
  call void @llvm.lifetime.end.p0(i64 4, ptr %14) #4
  call void @llvm.lifetime.end.p0(i64 4, ptr %13) #4
  call void @llvm.lifetime.end.p0(i64 8, ptr %12) #4
  call void @llvm.lifetime.end.p0(i64 8, ptr %11) #4
  ret void
}