; Function Attrs: mustprogress nofree norecurse nosync nounwind willreturn memory(argmem: readwrite) uwtable
define void @stbcc__add_clump_connection(ptr noundef captures(none) %0, i32 noundef %1, i32 noundef %2, i32 noundef %3, i32 noundef %4) local_unnamed_addr #8 {
  %6 = ashr i32 %1, 5
  %7 = ashr i32 %2, 5
  %8 = getelementptr inbounds nuw i8, ptr %0, i64 131092
  %9 = sext i32 %2 to i64
  %10 = sext i32 %1 to i64
  %11 = getelementptr inbounds [1024 x [1024 x i16]], ptr %8, i64 0, i64 %9, i64 %10
  %12 = load i16, ptr %11, align 2, !tbaa !3
  %13 = getelementptr inbounds nuw i8, ptr %0, i64 2228244
  %14 = sext i32 %7 to i64
  %15 = sext i32 %6 to i64
  %16 = getelementptr inbounds [32 x [32 x %struct.stbcc__cluster]], ptr %13, i64 0, i64 %14, i64 %15
  %17 = getelementptr inbounds nuw i8, ptr %16, i64 4
  %18 = zext i16 %12 to i64
  %19 = getelementptr inbounds nuw [512 x %struct.stbcc__clump], ptr %17, i64 0, i64 %18
  %20 = getelementptr inbounds nuw i8, ptr %19, i64 4
  %21 = load i8, ptr %20, align 4, !tbaa !16
  %22 = getelementptr inbounds nuw i8, ptr %19, i64 5
  %23 = load i8, ptr %22, align 1, !tbaa !31
  %24 = icmp eq i8 %21, %23
  br i1 %24, label %25, label %27

25:                                               ; preds = %5
  %26 = getelementptr inbounds nuw i8, ptr %16, i64 3
  store i8 1, ptr %26, align 1, !tbaa !24
  br label %50

27:                                               ; preds = %5
  %28 = sext i32 %4 to i64
  %29 = sext i32 %3 to i64
  %30 = getelementptr inbounds [1024 x [1024 x i16]], ptr %8, i64 0, i64 %28, i64 %29
  %31 = load i16, ptr %30, align 2, !tbaa !3
  %32 = and i16 %31, 4095
  %33 = sub nsw i32 %3, %1
  %34 = trunc i32 %33 to i16
  %35 = shl i16 %34, 12
  %36 = and i16 %35, 12288
  %37 = or disjoint i16 %36, %32
  %38 = sub nsw i32 %4, %2
  %39 = trunc i32 %38 to i16
  %40 = shl i16 %39, 14
  %41 = or disjoint i16 %37, %40
  %42 = getelementptr inbounds nuw i8, ptr %16, i64 4100
  %43 = getelementptr inbounds nuw i8, ptr %19, i64 6
  %44 = load i8, ptr %43, align 2, !tbaa !14
  %45 = zext i8 %44 to i64
  %46 = getelementptr inbounds nuw [128 x %struct.stbcc__relative_clumpid], ptr %42, i64 0, i64 %45
  %47 = add i8 %21, 1
  store i8 %47, ptr %20, align 4, !tbaa !16
  %48 = zext i8 %21 to i64
  %49 = getelementptr inbounds nuw %struct.stbcc__relative_clumpid, ptr %46, i64 %48
  store i16 %41, ptr %49, align 2, !tbaa !7
  br label %50

50:                                               ; preds = %27, %25
  ret void
}